; Function Attrs: mustprogress uwtable
define noundef zeroext i1 @_ZN4YAML12EmitterState11SetFlowTypeENS_9GroupType5valueENS_13EMITTER_MANIPENS_8FmtScope5valueE(ptr noundef nonnull align 8 dereferenceable(224) %0, i32 noundef %1, i32 noundef %2, i32 noundef %3) local_unnamed_addr #4 align 2 {
  %5 = and i32 %2, -2
  %switch = icmp eq i32 %5, 28
  br i1 %switch, label %6, label %9

6:                                                ; preds = %4
  %7 = icmp eq i32 %1, 1
  %.v = select i1 %7, i64 96, i64 100
  %8 = getelementptr inbounds nuw i8, ptr %0, i64 %.v
  tail call void @_ZN4YAML12EmitterState4_SetINS_13EMITTER_MANIPEEEvRNS_7SettingIT_EES4_NS_8FmtScope5valueE(ptr noundef nonnull align 8 dereferenceable(224) %0, ptr noundef nonnull align 4 dereferenceable(4) %8, i32 noundef %2, i32 noundef %3)
  br label %9

9:                                                ; preds = %4, %6
  ret i1 %switch
}